target datalayout = "e-m:e-p270:32:32-p271:32:32-p272:64:64-i64:64-i128:128-f80:128-n8:16:32:64-S128"
target triple = "x86_64-unknown-linux-gnu"

%"struct.llvh::fltSemantics" = type { i16, i16, i32, i32 }
%"class.llvh::detail::IEEEFloat" = type <{ ptr, %"union.llvh::detail::IEEEFloat::Significand", i16, i8, [5 x i8] }>
%"union.llvh::detail::IEEEFloat::Significand" = type { i64 }

; Function Attrs: mustprogress nounwind uwtable
define internal noundef i32 @_ZN4llvhL16partCountForBitsEj(i32 noundef %bits) #1 {
entry:
  %bits.addr = alloca i32, align 4
  store i32 %bits, ptr %bits.addr, align 4
  %0 = load i32, ptr %bits.addr, align 4
  %add = add i32 %0, 64
  %sub = sub i32 %add, 1
  %div = udiv i32 %sub, 64
  ret i32 %div
}

; Function Attrs: mustprogress nounwind uwtable
define hidden noundef i32 @_ZNK4llvh6detail9IEEEFloat9partCountEv(ptr noundef nonnull align 8 dereferenceable(24) %this) #1 align 2 {
entry:
  %this.addr = alloca ptr, align 8
  store ptr %this, ptr %this.addr, align 8
  %this1 = load ptr, ptr %this.addr, align 8
  %semantics = getelementptr inbounds %"class.llvh::detail::IEEEFloat", ptr %this1, i32 0, i32 0
  %0 = load ptr, ptr %semantics, align 8
  %precision = getelementptr inbounds %"struct.llvh::fltSemantics", ptr %0, i32 0, i32 2
  %1 = load i32, ptr %precision, align 4
  %add = add i32 %1, 1
  %call = call noundef i32 @_ZN4llvhL16partCountForBitsEj(i32 noundef %add)
  ret i32 %call
}

; Function Attrs: mustprogress nounwind uwtable
define hidden void @_ZN4llvh6detail9IEEEFloat10initializeEPKNS_12fltSemanticsE(ptr noundef nonnull align 8 dereferenceable(24) %this, ptr noundef %ourSemantics) #1 align 2 {
entry:
  %this.addr = alloca ptr, align 8
  %ourSemantics.addr = alloca ptr, align 8
  %count = alloca i32, align 4
  store ptr %this, ptr %this.addr, align 8
  store ptr %ourSemantics, ptr %ourSemantics.addr, align 8
  %this1 = load ptr, ptr %this.addr, align 8
  %0 = load ptr, ptr %ourSemantics.addr, align 8
  %semantics = getelementptr inbounds %"class.llvh::detail::IEEEFloat", ptr %this1, i32 0, i32 0
  store ptr %0, ptr %semantics, align 8
  %call = call noundef i32 @_ZNK4llvh6detail9IEEEFloat9partCountEv(ptr noundef nonnull align 8 dereferenceable(24) %this1)
  store i32 %call, ptr %count, align 4
  %1 = load i32, ptr %count, align 4
  %cmp = icmp ugt i32 %1, 1
  br i1 %cmp, label %if.then, label %if.end

if.then:                                          ; preds = %entry
  %2 = load i32, ptr %count, align 4
  %conv = zext i32 %2 to i64
  %3 = call { i64, i1 } @llvm.umul.with.overflow.i64(i64 %conv, i64 8)
  %4 = extractvalue { i64, i1 } %3, 1
  %5 = extractvalue { i64, i1 } %3, 0
  %6 = select i1 %4, i64 -1, i64 %5
  %call2 = call noalias noundef nonnull ptr @_Znam(i64 noundef %6) #13
  %significand = getelementptr inbounds %"class.llvh::detail::IEEEFloat", ptr %this1, i32 0, i32 1
  store ptr %call2, ptr %significand, align 8
  br label %if.end

if.end:                                           ; preds = %if.then, %entry
  ret void
}

; Function Attrs: mustprogress nounwind uwtable
define hidden void @_ZN4llvh6detail9IEEEFloatC2ERKNS_12fltSemanticsE(ptr noundef nonnull align 8 dereferenceable(24) %this, ptr noundef nonnull align 4 dereferenceable(12) %ourSemantics) unnamed_addr #1 align 2 {
entry:
  %this.addr = alloca ptr, align 8
  %ourSemantics.addr = alloca ptr, align 8
  store ptr %this, ptr %this.addr, align 8
  store ptr %ourSemantics, ptr %ourSemantics.addr, align 8
  %this1 = load ptr, ptr %this.addr, align 8
  %0 = load ptr, ptr %ourSemantics.addr, align 8
  call void @_ZN4llvh6detail9IEEEFloat10initializeEPKNS_12fltSemanticsE(ptr noundef nonnull align 8 dereferenceable(24) %this1, ptr noundef %0)
  %category = getelementptr inbounds %"class.llvh::detail::IEEEFloat", ptr %this1, i32 0, i32 3
  %bf.load = load i8, ptr %category, align 2
  %bf.clear = and i8 %bf.load, -8
  %bf.set = or i8 %bf.clear, 3
  store i8 %bf.set, ptr %category, align 2
  %sign = getelementptr inbounds %"class.llvh::detail::IEEEFloat", ptr %this1, i32 0, i32 3
  %bf.load2 = load i8, ptr %sign, align 2
  %bf.clear3 = and i8 %bf.load2, -9
  %bf.set4 = or i8 %bf.clear3, 0
  store i8 %bf.set4, ptr %sign, align 2
  ret void
}

; Function Attrs: mustprogress nounwind uwtable
define hidden void @_ZN4llvh6detail9IEEEFloatC2ERKNS_12fltSemanticsENS_11APFloatBase16uninitializedTagE(ptr noundef nonnull align 8 dereferenceable(24) %this, ptr noundef nonnull align 4 dereferenceable(12) %ourSemantics, i32 noundef %tag) unnamed_addr #1 align 2 {
entry:
  %this.addr = alloca ptr, align 8
  %ourSemantics.addr = alloca ptr, align 8
  %tag.addr = alloca i32, align 4
  store ptr %this, ptr %this.addr, align 8
  store ptr %ourSemantics, ptr %ourSemantics.addr, align 8
  store i32 %tag, ptr %tag.addr, align 4
  %this1 = load ptr, ptr %this.addr, align 8
  %0 = load ptr, ptr %ourSemantics.addr, align 8
  call void @_ZN4llvh6detail9IEEEFloatC2ERKNS_12fltSemanticsE(ptr noundef nonnull align 8 dereferenceable(24) %this1, ptr noundef nonnull align 4 dereferenceable(12) %0)
  ret void
}