; Function Attrs: mustprogress nounwind uwtable
define hidden void @_ZN4llvh6detail9IEEEFloatC2ERKNS_12fltSemanticsENS_11APFloatBase16uninitializedTagE(ptr noundef nonnull align 8 captures(none) dereferenceable(24) initializes((0, 8)) %this, ptr noundef nonnull align 4 dereferenceable(12) %ourSemantics, i32 %tag) unnamed_addr #2 align 2 {
entry:
  store ptr %ourSemantics, ptr %this, align 8
  %precision.i.i.i = getelementptr inbounds nuw i8, ptr %ourSemantics, i64 4
  %0 = load i32, ptr %precision.i.i.i, align 4
  %sub.i.i.i.i = add i32 %0, 64
  %cmp.i.i = icmp ugt i32 %sub.i.i.i.i, 127
  br i1 %cmp.i.i, label %if.then.i.i, label %_ZN4llvh6detail9IEEEFloatC2ERKNS_12fltSemanticsE.exit

if.then.i.i:                                      ; preds = %entry
  %1 = lshr i32 %sub.i.i.i.i, 3
  %2 = and i32 %1, 536870904
  %3 = zext nneg i32 %2 to i64
  %call2.i.i = tail call noalias noundef nonnull ptr @_Znam(i64 noundef %3) #24
  %significand.i.i = getelementptr inbounds nuw i8, ptr %this, i64 8
  store ptr %call2.i.i, ptr %significand.i.i, align 8
  br label %_ZN4llvh6detail9IEEEFloatC2ERKNS_12fltSemanticsE.exit

_ZN4llvh6detail9IEEEFloatC2ERKNS_12fltSemanticsE.exit: ; preds = %entry, %if.then.i.i
  %category.i = getelementptr inbounds nuw i8, ptr %this, i64 18
  %bf.load.i = load i8, ptr %category.i, align 2
  %bf.clear.i = and i8 %bf.load.i, -16
  %bf.set.i = or disjoint i8 %bf.clear.i, 3
  store i8 %bf.set.i, ptr %category.i, align 2
  ret void
}